target datalayout = "e-m:e-p270:32:32-p271:32:32-p272:64:64-i64:64-i128:128-f80:128-n8:16:32:64-S128"
target triple = "x86_64-pc-linux-gnu"

%struct.mbedtls_x509_crt = type { i32, %struct.mbedtls_asn1_buf, %struct.mbedtls_asn1_buf, i32, %struct.mbedtls_asn1_buf, %struct.mbedtls_asn1_buf, %struct.mbedtls_asn1_buf, %struct.mbedtls_asn1_buf, %struct.mbedtls_asn1_named_data, %struct.mbedtls_asn1_named_data, %struct.mbedtls_x509_time, %struct.mbedtls_x509_time, %struct.mbedtls_asn1_buf, %struct.mbedtls_pk_context, %struct.mbedtls_asn1_buf, %struct.mbedtls_asn1_buf, %struct.mbedtls_asn1_buf, %struct.mbedtls_asn1_sequence, %struct.mbedtls_asn1_buf, %struct.mbedtls_x509_authority, %struct.mbedtls_asn1_sequence, i32, i32, i32, i32, %struct.mbedtls_asn1_sequence, i8, %struct.mbedtls_asn1_buf, i32, i32, ptr, ptr }
%struct.mbedtls_asn1_named_data = type { %struct.mbedtls_asn1_buf, %struct.mbedtls_asn1_buf, ptr, i8 }
%struct.mbedtls_x509_time = type { i32, i32, i32, i32, i32, i32 }
%struct.mbedtls_pk_context = type { ptr, ptr }
%struct.mbedtls_x509_authority = type { %struct.mbedtls_asn1_buf, %struct.mbedtls_asn1_sequence, %struct.mbedtls_asn1_buf, %struct.mbedtls_asn1_buf }
%struct.mbedtls_asn1_sequence = type { %struct.mbedtls_asn1_buf, ptr }
%struct.mbedtls_asn1_buf = type { i32, i64, ptr }

; Function Attrs: nounwind uwtable
define hidden i32 @mbedtls_x509_crt_check_key_usage(ptr noundef %0, i32 noundef %1) #0 {
  %3 = alloca i32, align 4
  %4 = alloca ptr, align 8
  %5 = alloca i32, align 4
  %6 = alloca i32, align 4
  %7 = alloca i32, align 4
  %8 = alloca i32, align 4
  %9 = alloca i32, align 4
  store ptr %0, ptr %4, align 8, !tbaa !3
  store i32 %1, ptr %5, align 4, !tbaa !12
  call void @llvm.lifetime.start.p0(i64 4, ptr %6) #10
  call void @llvm.lifetime.start.p0(i64 4, ptr %7) #10
  call void @llvm.lifetime.start.p0(i64 4, ptr %8) #10
  store i32 32769, ptr %8, align 4, !tbaa !12
  %10 = load ptr, ptr %4, align 8, !tbaa !3
  %11 = getelementptr inbounds nuw %struct.mbedtls_x509_crt, ptr %10, i32 0, i32 21
  %12 = load i32, ptr %11, align 8, !tbaa !57
  %13 = and i32 %12, 4
  %14 = icmp eq i32 %13, 0
  br i1 %14, label %15, label %16

15:                                               ; preds = %2
  store i32 0, ptr %3, align 4
  store i32 1, ptr %9, align 4
  br label %47

16:                                               ; preds = %2
  %17 = load i32, ptr %5, align 4, !tbaa !12
  %18 = load i32, ptr %8, align 4, !tbaa !12
  %19 = xor i32 %18, -1
  %20 = and i32 %17, %19
  store i32 %20, ptr %6, align 4, !tbaa !12
  %21 = load ptr, ptr %4, align 8, !tbaa !3
  %22 = getelementptr inbounds nuw %struct.mbedtls_x509_crt, ptr %21, i32 0, i32 24
  %23 = load i32, ptr %22, align 4, !tbaa !61
  %24 = load i32, ptr %8, align 4, !tbaa !12
  %25 = xor i32 %24, -1
  %26 = and i32 %23, %25
  %27 = load i32, ptr %6, align 4, !tbaa !12
  %28 = and i32 %26, %27
  %29 = load i32, ptr %6, align 4, !tbaa !12
  %30 = icmp ne i32 %28, %29
  br i1 %30, label %31, label %32

31:                                               ; preds = %16
  store i32 -10240, ptr %3, align 4
  store i32 1, ptr %9, align 4
  br label %47

32:                                               ; preds = %16
  %33 = load i32, ptr %5, align 4, !tbaa !12
  %34 = load i32, ptr %8, align 4, !tbaa !12
  %35 = and i32 %33, %34
  store i32 %35, ptr %7, align 4, !tbaa !12
  %36 = load ptr, ptr %4, align 8, !tbaa !3
  %37 = getelementptr inbounds nuw %struct.mbedtls_x509_crt, ptr %36, i32 0, i32 24
  %38 = load i32, ptr %37, align 4, !tbaa !61
  %39 = load i32, ptr %8, align 4, !tbaa !12
  %40 = and i32 %38, %39
  %41 = load i32, ptr %7, align 4, !tbaa !12
  %42 = or i32 %40, %41
  %43 = load i32, ptr %7, align 4, !tbaa !12
  %44 = icmp ne i32 %42, %43
  br i1 %44, label %45, label %46

45:                                               ; preds = %32
  store i32 -10240, ptr %3, align 4
  store i32 1, ptr %9, align 4
  br label %47

46:                                               ; preds = %32
  store i32 0, ptr %3, align 4
  store i32 1, ptr %9, align 4
  br label %47

47:                                               ; preds = %46, %45, %31, %15
  call void @llvm.lifetime.end.p0(i64 4, ptr %8) #10
  call void @llvm.lifetime.end.p0(i64 4, ptr %7) #10
  call void @llvm.lifetime.end.p0(i64 4, ptr %6) #10
  %48 = load i32, ptr %3, align 4
  ret i32 %48
}