; Function Attrs: mustprogress nofree norecurse nosync nounwind willreturn memory(argmem: read) uwtable
define hidden range(i32 -10240, 1) i32 @mbedtls_x509_crt_check_key_usage(ptr noundef readonly captures(none) %0, i32 noundef %1) local_unnamed_addr #8 {
  %3 = getelementptr inbounds nuw i8, ptr %0, i64 640
  %4 = load i32, ptr %3, align 8, !tbaa !67
  %5 = and i32 %4, 4
  %6 = icmp eq i32 %5, 0
  br i1 %6, label %16, label %7

7:                                                ; preds = %2
  %8 = and i32 %1, -32770
  %9 = getelementptr inbounds nuw i8, ptr %0, i64 652
  %10 = load i32, ptr %9, align 4, !tbaa !71
  %11 = and i32 %10, %8
  %.not = icmp eq i32 %11, %8
  br i1 %.not, label %12, label %16

12:                                               ; preds = %7
  %13 = and i32 %1, 32769
  %14 = xor i32 %13, 32769
  %15 = and i32 %14, %10
  %.not13 = icmp eq i32 %15, 0
  %. = select i1 %.not13, i32 0, i32 -10240
  br label %16

16:                                               ; preds = %12, %7, %2
  %.0 = phi i32 [ 0, %2 ], [ -10240, %7 ], [ %., %12 ]
  ret i32 %.0
}